ccopy_reg
_reconstructor
p0
(cchromosome
Chromosome
p1
c__builtin__
object
p2
Ntp3
Rp4
(dp5
S'city_list'
p6
(lp7
g0
(ccity
City
p8
g2
Ntp9
Rp10
(dp11
S'y'
p12
F42373.8889
sS'x'
p13
F11108.6111
sS'name'
p14
S'2'
p15
sbag0
(g8
g2
Ntp16
Rp17
(dp18
g12
F42102.5
sg13
F11003.6111
sg14
S'1'
p19
sbag0
(g8
g2
Ntp20
Rp21
(dp22
g12
F42057.2222
sg13
F11438.3333
sg14
S'10'
p23
sbag0
(g8
g2
Ntp24
Rp25
(dp26
g12
F42106.3889
sg13
F11511.3889
sg14
S'14'
p27
sbag0
(g8
g2
Ntp28
Rp29
(dp30
g12
F41836.1111
sg13
F11715.8333
sg14
S'21'
p31
sbag0
(g8
g2
Ntp32
Rp33
(dp34
g12
F42195.5556
sg13
F12058.3333
sg14
S'29'
p35
sbag0
(g8
g2
Ntp36
Rp37
(dp38
g12
F42477.5
sg13
F12149.4444
sg14
S'30'
p39
sbag0
(g8
g2
Ntp40
Rp41
(dp42
g12
F42433.3333
sg13
F12300.0
sg14
S'32'
p43
sbag0
(g8
g2
Ntp44
Rp45
(dp46
g12
F42711.3889
sg13
F12372.7778
sg14
S'35'
p47
sbag0
(g8
g2
Ntp48
Rp49
(dp50
g12
F42895.5556
sg13
F12421.6667
sg14
S'37'
p51
sbag0
(g8
g2
Ntp52
Rp53
(dp54
g12
F42973.3333
sg13
F12645.0
sg14
S'38'
p55
sbag0
(g8
g2
Ntp56
Rp57
(dp58
g12
F43156.3889
sg13
F12355.8333
sg14
S'33'
p59
sbag0
(g8
g2
Ntp60
Rp61
(dp62
g12
F43189.1667
sg13
F12363.3333
sg14
S'34'
p63
sbag0
(g8
g2
Ntp64
Rp65
(dp66
g12
F43334.7222
sg13
F12386.6667
sg14
S'36'
p67
sbag0
(g8
g2
Ntp68
Rp69
(dp70
g12
F43355.5556
sg13
F12286.9444
sg14
S'31'
p71
sbag0
(g8
g2
Ntp72
Rp73
(dp74
g12
F43290.5556
sg13
F11963.0556
sg14
S'27'
p75
sbag0
(g8
g2
Ntp76
Rp77
(dp78
g12
F43026.1111
sg13
F11973.0556
sg14
S'28'
p79
sbag0
(g8
g2
Ntp80
Rp81
(dp82
g12
F42884.4444
sg13
F11785.2778
sg14
S'24'
p83
sbag0
(g8
g2
Ntp84
Rp85
(dp86
g12
F42814.4444
sg13
F11751.1111
sg14
S'22'
p87
sbag0
(g8
g2
Ntp88
Rp89
(dp90
g12
F42673.6111
sg13
F11822.7778
sg14
S'25'
p91
sbag0
(g8
g2
Ntp92
Rp93
(dp94
g12
F42660.5556
sg13
F11846.9444
sg14
S'26'
p95
sbag0
(g8
g2
Ntp96
Rp97
(dp98
g12
F42651.9444
sg13
F11770.2778
sg14
S'23'
p99
sbag0
(g8
g2
Ntp100
Rp101
(dp102
g12
F42686.6667
sg13
F11690.5556
sg14
S'20'
p103
sbag0
(g8
g2
Ntp104
Rp105
(dp106
g12
F42841.9444
sg13
F11522.2222
sg14
S'15'
p107
sbag0
(g8
g2
Ntp108
Rp109
(dp110
g12
F42855.2778
sg13
F11503.0556
sg14
S'13'
p111
sbag0
(g8
g2
Ntp112
Rp113
(dp114
g12
F43136.6667
sg13
F11569.4444
sg14
S'16'
p115
sbag0
(g8
g2
Ntp116
Rp117
(dp118
g12
F43150.0
sg13
F11583.3333
sg14
S'17'
p119
sbag0
(g8
g2
Ntp120
Rp121
(dp122
g12
F43148.0556
sg13
F11595.0
sg14
S'18'
p123
sbag0
(g8
g2
Ntp124
Rp125
(dp126
g12
F43150.0
sg13
F11600.0
sg14
S'19'
p127
sbag0
(g8
g2
Ntp128
Rp129
(dp130
g12
F43252.7778
sg13
F11461.1111
sg14
S'11'
p131
sbag0
(g8
g2
Ntp132
Rp133
(dp134
g12
F43187.2222
sg13
F11485.5556
sg14
S'12'
p135
sbag0
(g8
g2
Ntp136
Rp137
(dp138
g12
F43000.2778
sg13
F11423.8889
sg14
S'9'
p139
sbag0
(g8
g2
Ntp140
Rp141
(dp142
g12
F42983.3333
sg13
F11416.6667
sg14
S'8'
p143
sbag0
(g8
g2
Ntp144
Rp145
(dp146
g12
F42929.4444
sg13
F11310.2778
sg14
S'7'
p147
sbag0
(g8
g2
Ntp148
Rp149
(dp150
g12
F42853.3333
sg13
F11297.5
sg14
S'6'
p151
sbag0
(g8
g2
Ntp152
Rp153
(dp154
g12
F42933.3333
sg13
F11183.3333
sg14
S'5'
p155
sbag0
(g8
g2
Ntp156
Rp157
(dp158
g12
F42885.8333
sg13
F11133.3333
sg14
S'3'
p159
sbag0
(g8
g2
Ntp160
Rp161
(dp162
g12
F42712.5
sg13
F11155.8333
sg14
S'4'
p163
sbasS'fitness'
p164
F6659.431532931463
sS'city_list_len'
p165
I38
sb.